target datalayout = "e-m:e-p270:32:32-p271:32:32-p272:64:64-i64:64-i128:128-f80:128-n8:16:32:64-S128"
target triple = "x86_64-pc-linux-gnu"

%struct.PortalData = type { ptr, ptr, ptr, ptr, ptr, i32, i32, i32, ptr, i32, %struct.QueryCompletion, ptr, ptr, ptr, ptr, i32, i32, i32, i8, i8, ptr, ptr, ptr, ptr, ptr, ptr, ptr, i8, i8, i64, i64, i8 }
%struct.QueryCompletion = type { i32, i64 }

@ActivePortal = external global ptr, align 8

; Function Attrs: nounwind uwtable
define internal zeroext i1 @match_prosrc_to_literal(ptr noundef %0, ptr noundef %1, i32 noundef %2, ptr noundef %3) #0 {
  %5 = alloca i1, align 1
  %6 = alloca ptr, align 8
  %7 = alloca ptr, align 8
  %8 = alloca i32, align 4
  %9 = alloca ptr, align 8
  %10 = alloca i32, align 4
  %11 = alloca i32, align 4
  %12 = alloca i32, align 4
  store ptr %0, ptr %6, align 8
  store ptr %1, ptr %7, align 8
  store i32 %2, ptr %8, align 4
  store ptr %3, ptr %9, align 8
  call void @llvm.lifetime.start.p0(i64 4, ptr %10) #8
  %13 = load i32, ptr %8, align 4
  store i32 %13, ptr %10, align 4
  call void @llvm.lifetime.start.p0(i64 4, ptr %11) #8
  br label %14

14:                                               ; preds = %66, %4
  %15 = load ptr, ptr %6, align 8
  %16 = load i8, ptr %15, align 1
  %17 = icmp ne i8 %16, 0
  br i1 %17, label %18, label %75

18:                                               ; preds = %14
  %19 = load i32, ptr %8, align 4
  %20 = add i32 %19, -1
  store i32 %20, ptr %8, align 4
  %21 = load ptr, ptr %7, align 8
  %22 = load i8, ptr %21, align 1
  %23 = sext i8 %22 to i32
  %24 = icmp eq i32 %23, 92
  br i1 %24, label %25, label %34

25:                                               ; preds = %18
  %26 = load ptr, ptr %7, align 8
  %27 = getelementptr inbounds nuw i8, ptr %26, i32 1
  store ptr %27, ptr %7, align 8
  %28 = load i32, ptr %8, align 4
  %29 = icmp sgt i32 %28, 0
  br i1 %29, label %30, label %33

30:                                               ; preds = %25
  %31 = load i32, ptr %10, align 4
  %32 = add i32 %31, 1
  store i32 %32, ptr %10, align 4
  br label %33

33:                                               ; preds = %30, %25
  br label %56

34:                                               ; preds = %18
  %35 = load ptr, ptr %7, align 8
  %36 = load i8, ptr %35, align 1
  %37 = sext i8 %36 to i32
  %38 = icmp eq i32 %37, 39
  br i1 %38, label %39, label %55

39:                                               ; preds = %34
  %40 = load ptr, ptr %7, align 8
  %41 = getelementptr inbounds i8, ptr %40, i64 1
  %42 = load i8, ptr %41, align 1
  %43 = sext i8 %42 to i32
  %44 = icmp ne i32 %43, 39
  br i1 %44, label %45, label %46

45:                                               ; preds = %39
  br label %90

46:                                               ; preds = %39
  %47 = load ptr, ptr %7, align 8
  %48 = getelementptr inbounds nuw i8, ptr %47, i32 1
  store ptr %48, ptr %7, align 8
  %49 = load i32, ptr %8, align 4
  %50 = icmp sgt i32 %49, 0
  br i1 %50, label %51, label %54

51:                                               ; preds = %46
  %52 = load i32, ptr %10, align 4
  %53 = add i32 %52, 1
  store i32 %53, ptr %10, align 4
  br label %54

54:                                               ; preds = %51, %46
  br label %55

55:                                               ; preds = %54, %34
  br label %56

56:                                               ; preds = %55, %33
  %57 = load ptr, ptr %6, align 8
  %58 = call i32 @pg_mblen(ptr noundef %57)
  store i32 %58, ptr %11, align 4
  %59 = load ptr, ptr %6, align 8
  %60 = load ptr, ptr %7, align 8
  %61 = load i32, ptr %11, align 4
  %62 = sext i32 %61 to i64
  %63 = call i32 @strncmp(ptr noundef %59, ptr noundef %60, i64 noundef %62) #10
  %64 = icmp ne i32 %63, 0
  br i1 %64, label %65, label %66

65:                                               ; preds = %56
  br label %90

66:                                               ; preds = %56
  %67 = load i32, ptr %11, align 4
  %68 = load ptr, ptr %6, align 8
  %69 = sext i32 %67 to i64
  %70 = getelementptr inbounds i8, ptr %68, i64 %69
  store ptr %70, ptr %6, align 8
  %71 = load i32, ptr %11, align 4
  %72 = load ptr, ptr %7, align 8
  %73 = sext i32 %71 to i64
  %74 = getelementptr inbounds i8, ptr %72, i64 %73
  store ptr %74, ptr %7, align 8
  br label %14, !llvm.loop !18

75:                                               ; preds = %14
  %76 = load ptr, ptr %7, align 8
  %77 = load i8, ptr %76, align 1
  %78 = sext i8 %77 to i32
  %79 = icmp eq i32 %78, 39
  br i1 %79, label %80, label %89

80:                                               ; preds = %75
  %81 = load ptr, ptr %7, align 8
  %82 = getelementptr inbounds i8, ptr %81, i64 1
  %83 = load i8, ptr %82, align 1
  %84 = sext i8 %83 to i32
  %85 = icmp ne i32 %84, 39
  br i1 %85, label %86, label %89

86:                                               ; preds = %80
  %87 = load i32, ptr %10, align 4
  %88 = load ptr, ptr %9, align 8
  store i32 %87, ptr %88, align 4
  store i1 true, ptr %5, align 1
  store i32 1, ptr %12, align 4
  br label %93

89:                                               ; preds = %80, %75
  br label %90

90:                                               ; preds = %89, %65, %45
  %91 = load i32, ptr %10, align 4
  %92 = load ptr, ptr %9, align 8
  store i32 %91, ptr %92, align 4
  store i1 false, ptr %5, align 1
  store i32 1, ptr %12, align 4
  br label %93

93:                                               ; preds = %90, %86
  call void @llvm.lifetime.end.p0(i64 4, ptr %11) #8
  call void @llvm.lifetime.end.p0(i64 4, ptr %10) #8
  %94 = load i1, ptr %5, align 1
  ret i1 %94
}

; Function Attrs: nounwind uwtable
define internal i32 @match_prosrc_to_query(ptr noundef %0, ptr noundef %1, i32 noundef %2) #0 {
  %4 = alloca i32, align 4
  %5 = alloca ptr, align 8
  %6 = alloca ptr, align 8
  %7 = alloca i32, align 4
  %8 = alloca i32, align 4
  %9 = alloca i32, align 4
  %10 = alloca i32, align 4
  %11 = alloca i32, align 4
  %12 = alloca i32, align 4
  %13 = alloca i32, align 4
  store ptr %0, ptr %5, align 8
  store ptr %1, ptr %6, align 8
  store i32 %2, ptr %7, align 4
  call void @llvm.lifetime.start.p0(i64 4, ptr %8) #8
  %14 = load ptr, ptr %5, align 8
  %15 = call i64 @strlen(ptr noundef %14) #10
  %16 = trunc i64 %15 to i32
  store i32 %16, ptr %8, align 4
  call void @llvm.lifetime.start.p0(i64 4, ptr %9) #8
  %17 = load ptr, ptr %6, align 8
  %18 = call i64 @strlen(ptr noundef %17) #10
  %19 = trunc i64 %18 to i32
  store i32 %19, ptr %9, align 4
  call void @llvm.lifetime.start.p0(i64 4, ptr %10) #8
  store i32 0, ptr %10, align 4
  call void @llvm.lifetime.start.p0(i64 4, ptr %11) #8
  call void @llvm.lifetime.start.p0(i64 4, ptr %12) #8
  store i32 0, ptr %11, align 4
  br label %20

20:                                               ; preds = %97, %3
  %21 = load i32, ptr %11, align 4
  %22 = load i32, ptr %9, align 4
  %23 = load i32, ptr %8, align 4
  %24 = sub i32 %22, %23
  %25 = icmp slt i32 %21, %24
  br i1 %25, label %26, label %100

26:                                               ; preds = %20
  %27 = load ptr, ptr %6, align 8
  %28 = load i32, ptr %11, align 4
  %29 = sext i32 %28 to i64
  %30 = getelementptr inbounds i8, ptr %27, i64 %29
  %31 = load i8, ptr %30, align 1
  %32 = sext i8 %31 to i32
  %33 = icmp eq i32 %32, 36
  br i1 %33, label %34, label %67

34:                                               ; preds = %26
  %35 = load ptr, ptr %5, align 8
  %36 = load ptr, ptr %6, align 8
  %37 = load i32, ptr %11, align 4
  %38 = add i32 %37, 1
  %39 = sext i32 %38 to i64
  %40 = getelementptr inbounds i8, ptr %36, i64 %39
  %41 = load i32, ptr %8, align 4
  %42 = sext i32 %41 to i64
  %43 = call i32 @strncmp(ptr noundef %35, ptr noundef %40, i64 noundef %42) #10
  %44 = icmp eq i32 %43, 0
  br i1 %44, label %45, label %67

45:                                               ; preds = %34
  %46 = load ptr, ptr %6, align 8
  %47 = load i32, ptr %11, align 4
  %48 = add i32 %47, 1
  %49 = load i32, ptr %8, align 4
  %50 = add i32 %48, %49
  %51 = sext i32 %50 to i64
  %52 = getelementptr inbounds i8, ptr %46, i64 %51
  %53 = load i8, ptr %52, align 1
  %54 = sext i8 %53 to i32
  %55 = icmp eq i32 %54, 36
  br i1 %55, label %56, label %67

56:                                               ; preds = %45
  %57 = load i32, ptr %10, align 4
  %58 = icmp ne i32 %57, 0
  br i1 %58, label %59, label %60

59:                                               ; preds = %56
  store i32 0, ptr %4, align 4
  store i32 1, ptr %13, align 4
  br label %102

60:                                               ; preds = %56
  %61 = load ptr, ptr %6, align 8
  %62 = load i32, ptr %11, align 4
  %63 = add i32 %62, 1
  %64 = call i32 @pg_mbstrlen_with_len(ptr noundef %61, i32 noundef %63)
  %65 = load i32, ptr %7, align 4
  %66 = add i32 %64, %65
  store i32 %66, ptr %10, align 4
  br label %96

67:                                               ; preds = %45, %34, %26
  %68 = load ptr, ptr %6, align 8
  %69 = load i32, ptr %11, align 4
  %70 = sext i32 %69 to i64
  %71 = getelementptr inbounds i8, ptr %68, i64 %70
  %72 = load i8, ptr %71, align 1
  %73 = sext i8 %72 to i32
  %74 = icmp eq i32 %73, 39
  br i1 %74, label %75, label %95

75:                                               ; preds = %67
  %76 = load ptr, ptr %5, align 8
  %77 = load ptr, ptr %6, align 8
  %78 = load i32, ptr %11, align 4
  %79 = add i32 %78, 1
  %80 = sext i32 %79 to i64
  %81 = getelementptr inbounds i8, ptr %77, i64 %80
  %82 = load i32, ptr %7, align 4
  %83 = call zeroext i1 @match_prosrc_to_literal(ptr noundef %76, ptr noundef %81, i32 noundef %82, ptr noundef %12)
  br i1 %83, label %84, label %95

84:                                               ; preds = %75
  %85 = load i32, ptr %10, align 4
  %86 = icmp ne i32 %85, 0
  br i1 %86, label %87, label %88

87:                                               ; preds = %84
  store i32 0, ptr %4, align 4
  store i32 1, ptr %13, align 4
  br label %102

88:                                               ; preds = %84
  %89 = load ptr, ptr %6, align 8
  %90 = load i32, ptr %11, align 4
  %91 = add i32 %90, 1
  %92 = call i32 @pg_mbstrlen_with_len(ptr noundef %89, i32 noundef %91)
  %93 = load i32, ptr %12, align 4
  %94 = add i32 %92, %93
  store i32 %94, ptr %10, align 4
  br label %95

95:                                               ; preds = %88, %75, %67
  br label %96

96:                                               ; preds = %95, %60
  br label %97

97:                                               ; preds = %96
  %98 = load i32, ptr %11, align 4
  %99 = add i32 %98, 1
  store i32 %99, ptr %11, align 4
  br label %20, !llvm.loop !16

100:                                              ; preds = %20
  %101 = load i32, ptr %10, align 4
  store i32 %101, ptr %4, align 4
  store i32 1, ptr %13, align 4
  br label %102

102:                                              ; preds = %100, %87, %59
  call void @llvm.lifetime.end.p0(i64 4, ptr %12) #8
  call void @llvm.lifetime.end.p0(i64 4, ptr %11) #8
  call void @llvm.lifetime.end.p0(i64 4, ptr %10) #8
  call void @llvm.lifetime.end.p0(i64 4, ptr %9) #8
  call void @llvm.lifetime.end.p0(i64 4, ptr %8) #8
  %103 = load i32, ptr %4, align 4
  ret i32 %103
}

; Function Attrs: nounwind uwtable
define dso_local zeroext i1 @function_parse_error_transpose(ptr noundef %0) #0 {
  %2 = alloca i1, align 1
  %3 = alloca ptr, align 8
  %4 = alloca i32, align 4
  %5 = alloca i32, align 4
  %6 = alloca i32, align 4
  %7 = alloca ptr, align 8
  store ptr %0, ptr %3, align 8
  call void @llvm.lifetime.start.p0(i64 4, ptr %4) #8
  call void @llvm.lifetime.start.p0(i64 4, ptr %5) #8
  %8 = call i32 @geterrposition()
  store i32 %8, ptr %4, align 4
  %9 = load i32, ptr %4, align 4
  %10 = icmp sle i32 %9, 0
  br i1 %10, label %11, label %17

11:                                               ; preds = %1
  %12 = call i32 @getinternalerrposition()
  store i32 %12, ptr %4, align 4
  %13 = load i32, ptr %4, align 4
  %14 = icmp sle i32 %13, 0
  br i1 %14, label %15, label %16

15:                                               ; preds = %11
  store i1 false, ptr %2, align 1
  store i32 1, ptr %6, align 4
  br label %49

16:                                               ; preds = %11
  br label %17

17:                                               ; preds = %16, %1
  %18 = load ptr, ptr @ActivePortal, align 8
  %19 = icmp ne ptr %18, null
  br i1 %19, label %20, label %33

20:                                               ; preds = %17
  %21 = load ptr, ptr @ActivePortal, align 8
  %22 = getelementptr inbounds nuw %struct.PortalData, ptr %21, i32 0, i32 17
  %23 = load i32, ptr %22, align 8
  %24 = icmp eq i32 %23, 3
  br i1 %24, label %25, label %33

25:                                               ; preds = %20
  call void @llvm.lifetime.start.p0(i64 8, ptr %7) #8
  %26 = load ptr, ptr @ActivePortal, align 8
  %27 = getelementptr inbounds nuw %struct.PortalData, ptr %26, i32 0, i32 8
  %28 = load ptr, ptr %27, align 8
  store ptr %28, ptr %7, align 8
  %29 = load ptr, ptr %3, align 8
  %30 = load ptr, ptr %7, align 8
  %31 = load i32, ptr %4, align 4
  %32 = call i32 @match_prosrc_to_query(ptr noundef %29, ptr noundef %30, i32 noundef %31)
  store i32 %32, ptr %5, align 4
  call void @llvm.lifetime.end.p0(i64 8, ptr %7) #8
  br label %34

33:                                               ; preds = %20, %17
  store i32 -1, ptr %5, align 4
  br label %34

34:                                               ; preds = %33, %25
  %35 = load i32, ptr %5, align 4
  %36 = icmp sgt i32 %35, 0
  br i1 %36, label %37, label %42

37:                                               ; preds = %34
  %38 = load i32, ptr %5, align 4
  %39 = call i32 @errposition(i32 noundef %38)
  %40 = call i32 @internalerrposition(i32 noundef 0)
  %41 = call i32 @internalerrquery(ptr noundef null)
  br label %48

42:                                               ; preds = %34
  %43 = call i32 @errposition(i32 noundef 0)
  %44 = load i32, ptr %4, align 4
  %45 = call i32 @internalerrposition(i32 noundef %44)
  %46 = load ptr, ptr %3, align 8
  %47 = call i32 @internalerrquery(ptr noundef %46)
  br label %48

48:                                               ; preds = %42, %37
  store i1 true, ptr %2, align 1
  store i32 1, ptr %6, align 4
  br label %49

49:                                               ; preds = %48, %15
  call void @llvm.lifetime.end.p0(i64 4, ptr %5) #8
  call void @llvm.lifetime.end.p0(i64 4, ptr %4) #8
  %50 = load i1, ptr %2, align 1
  ret i1 %50
}