; Function Attrs: nounwind uwtable
define dso_local noundef zeroext i1 @function_parse_error_transpose(ptr noundef %0) local_unnamed_addr #0 {
  %2 = tail call i32 @geterrposition() #7
  %3 = icmp slt i32 %2, 1
  br i1 %3, label %4, label %7

4:                                                ; preds = %1
  %5 = tail call i32 @getinternalerrposition() #7
  %6 = icmp slt i32 %5, 1
  br i1 %6, label %71, label %7

7:                                                ; preds = %4, %1
  %.010 = phi i32 [ %5, %4 ], [ %2, %1 ]
  %8 = load ptr, ptr @ActivePortal, align 8
  %.not = icmp eq ptr %8, null
  br i1 %.not, label %match_prosrc_to_query.exit.thread, label %9

9:                                                ; preds = %7
  %10 = getelementptr inbounds nuw i8, ptr %8, i64 128
  %11 = load i32, ptr %10, align 8
  %12 = icmp eq i32 %11, 3
  br i1 %12, label %13, label %match_prosrc_to_query.exit.thread

13:                                               ; preds = %9
  %14 = getelementptr inbounds nuw i8, ptr %8, i64 56
  %15 = load ptr, ptr %14, align 8
  %16 = tail call i64 @strlen(ptr noundef nonnull dereferenceable(1) %0) #9
  %17 = trunc i64 %16 to i32
  %18 = tail call i64 @strlen(ptr noundef nonnull dereferenceable(1) %15) #9
  %19 = trunc i64 %18 to i32
  %20 = sub i32 %19, %17
  %21 = icmp sgt i32 %20, 0
  br i1 %21, label %.lr.ph.i, label %match_prosrc_to_query.exit.thread

.lr.ph.i:                                         ; preds = %13
  %sext.i = shl i64 %16, 32
  %22 = ashr exact i64 %sext.i, 32
  %wide.trip.count.i = zext nneg i32 %20 to i64
  br label %23

23:                                               ; preds = %.thread.i, %.lr.ph.i
  %indvars.iv.i = phi i64 [ 0, %.lr.ph.i ], [ %.pre.i, %.thread.i ]
  %.02934.i = phi i32 [ 0, %.lr.ph.i ], [ %.1.i, %.thread.i ]
  %24 = getelementptr inbounds nuw i8, ptr %15, i64 %indvars.iv.i
  %25 = load i8, ptr %24, align 1
  %.pre.i = add nuw nsw i64 %indvars.iv.i, 1
  switch i8 %25, label %.thread.i [
    i8 36, label %26
    i8 39, label %37
  ]

26:                                               ; preds = %23
  %27 = getelementptr inbounds nuw i8, ptr %15, i64 %.pre.i
  %28 = tail call i32 @strncmp(ptr noundef nonnull %0, ptr noundef nonnull %27, i64 noundef %22) #9
  %29 = icmp eq i32 %28, 0
  br i1 %29, label %30, label %.thread.i

30:                                               ; preds = %26
  %31 = add i64 %.pre.i, %16
  %sext41.i = shl i64 %31, 32
  %32 = ashr exact i64 %sext41.i, 32
  %33 = getelementptr inbounds i8, ptr %15, i64 %32
  %34 = load i8, ptr %33, align 1
  %35 = icmp eq i8 %34, 36
  br i1 %35, label %36, label %.thread.i

36:                                               ; preds = %30
  %.not31.i = icmp eq i32 %.02934.i, 0
  br i1 %.not31.i, label %.thread.sink.split.i, label %match_prosrc_to_query.exit.thread

37:                                               ; preds = %23
  %38 = getelementptr inbounds nuw i8, ptr %15, i64 %.pre.i
  %39 = load i8, ptr %0, align 1
  %.not39.i.i = icmp eq i8 %39, 0
  br i1 %.not39.i.i, label %._crit_edge.i.i, label %.lr.ph.i.i

.lr.ph.i.i:                                       ; preds = %37, %56
  %.02643.i.i = phi i32 [ %.1.i.i, %56 ], [ %.010, %37 ]
  %.02742.i.i = phi ptr [ %57, %56 ], [ %0, %37 ]
  %.02841.i.i = phi i32 [ %40, %56 ], [ %.010, %37 ]
  %.02940.i.i = phi ptr [ %58, %56 ], [ %38, %37 ]
  %40 = add i32 %.02841.i.i, -1
  %41 = load i8, ptr %.02940.i.i, align 1
  switch i8 %41, label %52 [
    i8 92, label %42
    i8 39, label %46
  ]

42:                                               ; preds = %.lr.ph.i.i
  %43 = getelementptr inbounds nuw i8, ptr %.02940.i.i, i64 1
  %44 = icmp sgt i32 %40, 0
  %45 = zext i1 %44 to i32
  %spec.select.i.i = add i32 %.02643.i.i, %45
  br label %52

46:                                               ; preds = %.lr.ph.i.i
  %47 = getelementptr inbounds nuw i8, ptr %.02940.i.i, i64 1
  %48 = load i8, ptr %47, align 1
  %.not33.i.i = icmp eq i8 %48, 39
  br i1 %.not33.i.i, label %49, label %.thread.i

49:                                               ; preds = %46
  %50 = icmp sgt i32 %40, 0
  %51 = zext i1 %50 to i32
  %spec.select35.i.i = add i32 %.02643.i.i, %51
  br label %52

52:                                               ; preds = %49, %42, %.lr.ph.i.i
  %.130.i.i = phi ptr [ %43, %42 ], [ %.02940.i.i, %.lr.ph.i.i ], [ %47, %49 ]
  %.1.i.i = phi i32 [ %spec.select.i.i, %42 ], [ %.02643.i.i, %.lr.ph.i.i ], [ %spec.select35.i.i, %49 ]
  %53 = tail call i32 @pg_mblen(ptr noundef nonnull %.02742.i.i) #7
  %54 = sext i32 %53 to i64
  %55 = tail call i32 @strncmp(ptr noundef nonnull %.02742.i.i, ptr noundef nonnull %.130.i.i, i64 noundef %54) #9
  %.not34.i.i = icmp eq i32 %55, 0
  br i1 %.not34.i.i, label %56, label %.thread.i

56:                                               ; preds = %52
  %57 = getelementptr inbounds i8, ptr %.02742.i.i, i64 %54
  %58 = getelementptr inbounds i8, ptr %.130.i.i, i64 %54
  %59 = load i8, ptr %57, align 1
  %.not.i.i = icmp eq i8 %59, 0
  br i1 %.not.i.i, label %._crit_edge.i.i, label %.lr.ph.i.i, !llvm.loop !12

._crit_edge.i.i:                                  ; preds = %56, %37
  %.029.lcssa.i.i = phi ptr [ %38, %37 ], [ %58, %56 ]
  %.026.lcssa.i.i = phi i32 [ %.010, %37 ], [ %.1.i.i, %56 ]
  %60 = load i8, ptr %.029.lcssa.i.i, align 1
  %61 = icmp eq i8 %60, 39
  br i1 %61, label %match_prosrc_to_literal.exit.i, label %.thread.i

match_prosrc_to_literal.exit.i:                   ; preds = %._crit_edge.i.i
  %62 = getelementptr inbounds nuw i8, ptr %.029.lcssa.i.i, i64 1
  %63 = load i8, ptr %62, align 1
  %.not32.i.not.i = icmp eq i8 %63, 39
  br i1 %.not32.i.not.i, label %.thread.i, label %64

64:                                               ; preds = %match_prosrc_to_literal.exit.i
  %.not.i = icmp eq i32 %.02934.i, 0
  br i1 %.not.i, label %.thread.sink.split.i, label %match_prosrc_to_query.exit.thread

.thread.sink.split.i:                             ; preds = %64, %36
  %.sink42.i = phi i32 [ %.010, %36 ], [ %.026.lcssa.i.i, %64 ]
  %.sink43.i = trunc i64 %.pre.i to i32
  %65 = tail call i32 @pg_mbstrlen_with_len(ptr noundef nonnull %15, i32 noundef %.sink43.i) #7
  %66 = add i32 %65, %.sink42.i
  br label %.thread.i

.thread.i:                                        ; preds = %52, %46, %.thread.sink.split.i, %match_prosrc_to_literal.exit.i, %._crit_edge.i.i, %30, %26, %23
  %.1.i = phi i32 [ %.02934.i, %._crit_edge.i.i ], [ %.02934.i, %26 ], [ %.02934.i, %30 ], [ %.02934.i, %match_prosrc_to_literal.exit.i ], [ %.02934.i, %23 ], [ %66, %.thread.sink.split.i ], [ %.02934.i, %46 ], [ %.02934.i, %52 ]
  %exitcond.not.i = icmp eq i64 %.pre.i, %wide.trip.count.i
  br i1 %exitcond.not.i, label %match_prosrc_to_query.exit, label %23, !llvm.loop !13

match_prosrc_to_query.exit:                       ; preds = %.thread.i
  %67 = icmp sgt i32 %.1.i, 0
  br i1 %67, label %.sink.split, label %match_prosrc_to_query.exit.thread

match_prosrc_to_query.exit.thread:                ; preds = %36, %64, %13, %7, %9, %match_prosrc_to_query.exit
  br label %.sink.split

.sink.split:                                      ; preds = %match_prosrc_to_query.exit, %match_prosrc_to_query.exit.thread
  %.1.i.lcssa.sink = phi i32 [ 0, %match_prosrc_to_query.exit.thread ], [ %.1.i, %match_prosrc_to_query.exit ]
  %.sink15 = phi i32 [ %.010, %match_prosrc_to_query.exit.thread ], [ 0, %match_prosrc_to_query.exit ]
  %.sink = phi ptr [ %0, %match_prosrc_to_query.exit.thread ], [ null, %match_prosrc_to_query.exit ]
  %68 = tail call i32 @errposition(i32 noundef %.1.i.lcssa.sink) #7
  %69 = tail call i32 @internalerrposition(i32 noundef %.sink15) #7
  %70 = tail call i32 @internalerrquery(ptr noundef %.sink) #7
  br label %71

71:                                               ; preds = %.sink.split, %4
  %.0 = phi i1 [ false, %4 ], [ true, %.sink.split ]
  ret i1 %.0
}